; Function Attrs: mustprogress nounwind uwtable
define hidden void @_ZN10IfProjNode22pin_array_access_nodesEP12PhaseIterGVN(ptr nocapture noundef nonnull readonly align 8 dereferenceable(57) %0, ptr noundef %1) local_unnamed_addr #0 align 2 {
  %3 = getelementptr inbounds i8, ptr %0, i64 32
  %4 = load i32, ptr %3, align 8
  %.not14 = icmp eq i32 %4, 0
  br i1 %.not14, label %._crit_edge, label %.lr.ph

.lr.ph:                                           ; preds = %2
  %5 = getelementptr inbounds i8, ptr %0, i64 16
  %6 = getelementptr inbounds i8, ptr %1, i64 32
  br label %7

7:                                                ; preds = %.lr.ph, %28
  %.013 = phi i32 [ 0, %.lr.ph ], [ %29, %28 ]
  %8 = load ptr, ptr %5, align 8
  %9 = zext i32 %.013 to i64
  %10 = getelementptr inbounds ptr, ptr %8, i64 %9
  %11 = load ptr, ptr %10, align 8
  %12 = load ptr, ptr %11, align 8
  %13 = getelementptr inbounds i8, ptr %12, i64 24
  %14 = load ptr, ptr %13, align 8
  %15 = tail call noundef zeroext i1 %14(ptr noundef nonnull align 8 dereferenceable(52) %11) #8
  br i1 %15, label %16, label %28

16:                                               ; preds = %7
  %17 = load ptr, ptr %11, align 8
  %18 = getelementptr inbounds i8, ptr %17, i64 104
  %19 = load ptr, ptr %18, align 8
  %20 = tail call noundef ptr %19(ptr noundef nonnull align 8 dereferenceable(52) %11) #8
  %.not = icmp eq ptr %20, null
  br i1 %.not, label %28, label %21

21:                                               ; preds = %16
  %22 = load ptr, ptr %1, align 8
  %23 = load ptr, ptr %22, align 8
  %24 = tail call noundef ptr %23(ptr noundef nonnull align 8 dereferenceable(2416) %1, ptr noundef nonnull %20) #8
  tail call void @_ZN12PhaseIterGVN21add_users_to_worklistEP4Node(ptr noundef nonnull align 8 dereferenceable(2416) %1, ptr noundef nonnull %11) #8
  %25 = load ptr, ptr %6, align 8
  %26 = tail call noundef zeroext i1 @_ZN8NodeHash11hash_deleteEPK4Node(ptr noundef nonnull align 8 dereferenceable(40) %25, ptr noundef nonnull %11) #8
  tail call void @_ZN12PhaseIterGVN12subsume_nodeEP4NodeS1_(ptr noundef nonnull align 8 dereferenceable(2416) %1, ptr noundef nonnull %11, ptr noundef %24) #8
  %27 = add i32 %.013, -1
  br label %28

28:                                               ; preds = %16, %21, %7
  %.1 = phi i32 [ %27, %21 ], [ %.013, %16 ], [ %.013, %7 ]
  %29 = add i32 %.1, 1
  %30 = load i32, ptr %3, align 8
  %31 = icmp ugt i32 %30, %29
  br i1 %31, label %7, label %._crit_edge, !llvm.loop !31

._crit_edge:                                      ; preds = %28, %2
  ret void
}